target datalayout = "e-m:e-p270:32:32-p271:32:32-p272:64:64-i64:64-i128:128-f80:128-n8:16:32:64-S128"
target triple = "x86_64-unknown-linux-gnu"

%struct.BinaryProperty = type { i32, i32, ptr }

; Function Attrs: mustprogress uwtable
define internal noundef signext i8 @_ZL15defaultContainsRK14BinaryPropertyi9UProperty(ptr noundef nonnull align 8 dereferenceable(16) %prop, i32 noundef %c, i32 noundef %0) #0 {
entry:
  %prop.addr = alloca ptr, align 8
  %c.addr = alloca i32, align 4
  %.addr = alloca i32, align 4
  store ptr %prop, ptr %prop.addr, align 8
  store i32 %c, ptr %c.addr, align 4
  store i32 %0, ptr %.addr, align 4
  %1 = load i32, ptr %c.addr, align 4
  %2 = load ptr, ptr %prop.addr, align 8
  %column = getelementptr inbounds %struct.BinaryProperty, ptr %2, i32 0, i32 0
  %3 = load i32, ptr %column, align 8
  %call = call i32 @u_getUnicodeProperties_75(i32 noundef %1, i32 noundef %3)
  %4 = load ptr, ptr %prop.addr, align 8
  %mask = getelementptr inbounds %struct.BinaryProperty, ptr %4, i32 0, i32 1
  %5 = load i32, ptr %mask, align 4
  %and = and i32 %call, %5
  %cmp = icmp ne i32 %and, 0
  %conv = zext i1 %cmp to i8
  ret i8 %conv
}