; Function Attrs: mustprogress uwtable
define internal noundef signext i8 @_ZL15defaultContainsRK14BinaryPropertyi9UProperty(ptr nocapture noundef nonnull readonly align 8 dereferenceable(16) %prop, i32 noundef %c, i32 %0) #0 {
entry:
  %1 = load i32, ptr %prop, align 8
  %call = tail call i32 @u_getUnicodeProperties_75(i32 noundef %c, i32 noundef %1)
  %mask = getelementptr inbounds i8, ptr %prop, i64 4
  %2 = load i32, ptr %mask, align 4
  %and = and i32 %2, %call
  %cmp = icmp ne i32 %and, 0
  %conv = zext i1 %cmp to i8
  ret i8 %conv
}